; Function Attrs: nounwind uwtable
define hidden range(i32 -16, 1) i32 @mbedtls_mpi_sub_int(ptr noundef %0, ptr noundef %1, i64 noundef %2) local_unnamed_addr #0 {
  %4 = alloca %struct.mbedtls_mpi, align 8
  %5 = alloca [1 x i64], align 8
  call void @llvm.lifetime.start.p0(i64 16, ptr nonnull %4) #16
  call void @llvm.lifetime.start.p0(i64 8, ptr nonnull %5) #16
  %.0.i = tail call noundef range(i64 0, -9223372036854775807) i64 @llvm.abs.i64(i64 %2, i1 false)
  store i64 %.0.i, ptr %5, align 8, !tbaa !17
  %6 = ashr i64 %2, 62
  %7 = trunc nsw i64 %6 to i16
  %8 = or i16 %7, 1
  %9 = getelementptr inbounds nuw i8, ptr %4, i64 8
  store i16 %8, ptr %9, align 8, !tbaa !10
  %10 = getelementptr inbounds nuw i8, ptr %4, i64 10
  store i16 1, ptr %10, align 2, !tbaa !3
  store ptr %5, ptr %4, align 8, !tbaa !12
  %11 = call fastcc range(i32 -16, 1) i32 @add_sub_mpi(ptr noundef %0, ptr noundef %1, ptr noundef nonnull %4, i32 noundef -1)
  call void @llvm.lifetime.end.p0(i64 8, ptr nonnull %5) #16
  call void @llvm.lifetime.end.p0(i64 16, ptr nonnull %4) #16
  ret i32 %11
}